target datalayout = "e-m:e-p270:32:32-p271:32:32-p272:64:64-i64:64-i128:128-f80:128-n8:16:32:64-S128"
target triple = "x86_64-pc-linux-gnu"

%struct.dlist_head = type { %struct.dlist_node }
%struct.dlist_node = type { ptr, ptr }
%union.LWLockPadded = type { %struct.LWLock, [112 x i8] }
%struct.LWLock = type { i16, %struct.pg_atomic_uint32, %struct.proclist_head }
%struct.pg_atomic_uint32 = type { i32 }
%struct.proclist_head = type { i32, i32 }
%struct.PGPROC = type { %struct.dlist_node, ptr, ptr, i32, %struct.Latch, i32, i32, i32, i32, %struct.anon, i32, i32, i32, i8, i8, i8, i8, %struct.proclist_node, %struct.proclist_node, ptr, ptr, i32, i32, %struct.pg_atomic_uint64, i32, i8, i64, i32, %struct.dlist_node, [16 x %struct.dlist_head], %struct.XidCacheStatus, %struct.XidCache, i8, %struct.pg_atomic_uint32, i32, i32, i8, %struct.pg_atomic_uint32, i32, i32, i64, i64, %struct.LWLock, ptr, ptr, i8, i32, ptr, %struct.dlist_head, %struct.dlist_node }
%struct.Latch = type { i32, i32, i8, i32 }
%struct.anon = type { i32, i32 }
%struct.proclist_node = type { i32, i32 }
%struct.pg_atomic_uint64 = type { i64 }
%struct.XidCacheStatus = type { i8, i8 }
%struct.XidCache = type { [64 x i32] }
%struct.dlist_iter = type { ptr, ptr }
%struct.BlockedProcsData = type { ptr, ptr, ptr, i32, i32, i32, i32, i32, i32 }

@MaxBackends = external global i32, align 4
@MainLWLockArray = external global ptr, align 8

; Function Attrs: nounwind uwtable
define dso_local ptr @GetBlockerStatusData(i32 noundef %0) #0 {
  %2 = alloca i32, align 4
  %3 = alloca ptr, align 8
  %4 = alloca ptr, align 8
  %5 = alloca i32, align 4
  %6 = alloca %struct.dlist_iter, align 8
  %7 = alloca i32, align 4
  %8 = alloca i32, align 4
  %9 = alloca ptr, align 8
  %10 = alloca i32, align 4
  %11 = alloca i32, align 4
  store i32 %0, ptr %2, align 4
  call void @llvm.lifetime.start.p0(i64 8, ptr %3) #9
  call void @llvm.lifetime.start.p0(i64 8, ptr %4) #9
  call void @llvm.lifetime.start.p0(i64 4, ptr %5) #9
  %12 = call ptr @palloc(i64 noundef 48)
  store ptr %12, ptr %3, align 8
  %13 = load ptr, ptr %3, align 8
  %14 = getelementptr inbounds nuw %struct.BlockedProcsData, ptr %13, i32 0, i32 7
  store i32 0, ptr %14, align 8
  %15 = load ptr, ptr %3, align 8
  %16 = getelementptr inbounds nuw %struct.BlockedProcsData, ptr %15, i32 0, i32 5
  store i32 0, ptr %16, align 8
  %17 = load ptr, ptr %3, align 8
  %18 = getelementptr inbounds nuw %struct.BlockedProcsData, ptr %17, i32 0, i32 3
  store i32 0, ptr %18, align 8
  %19 = load i32, ptr @MaxBackends, align 4
  %20 = load ptr, ptr %3, align 8
  %21 = getelementptr inbounds nuw %struct.BlockedProcsData, ptr %20, i32 0, i32 8
  store i32 %19, ptr %21, align 4
  %22 = load ptr, ptr %3, align 8
  %23 = getelementptr inbounds nuw %struct.BlockedProcsData, ptr %22, i32 0, i32 6
  store i32 %19, ptr %23, align 4
  %24 = load ptr, ptr %3, align 8
  %25 = getelementptr inbounds nuw %struct.BlockedProcsData, ptr %24, i32 0, i32 4
  store i32 %19, ptr %25, align 4
  %26 = load ptr, ptr %3, align 8
  %27 = getelementptr inbounds nuw %struct.BlockedProcsData, ptr %26, i32 0, i32 4
  %28 = load i32, ptr %27, align 4
  %29 = sext i32 %28 to i64
  %30 = mul i64 20, %29
  %31 = call ptr @palloc(i64 noundef %30)
  %32 = load ptr, ptr %3, align 8
  %33 = getelementptr inbounds nuw %struct.BlockedProcsData, ptr %32, i32 0, i32 0
  store ptr %31, ptr %33, align 8
  %34 = load ptr, ptr %3, align 8
  %35 = getelementptr inbounds nuw %struct.BlockedProcsData, ptr %34, i32 0, i32 6
  %36 = load i32, ptr %35, align 4
  %37 = sext i32 %36 to i64
  %38 = mul i64 56, %37
  %39 = call ptr @palloc(i64 noundef %38)
  %40 = load ptr, ptr %3, align 8
  %41 = getelementptr inbounds nuw %struct.BlockedProcsData, ptr %40, i32 0, i32 1
  store ptr %39, ptr %41, align 8
  %42 = load ptr, ptr %3, align 8
  %43 = getelementptr inbounds nuw %struct.BlockedProcsData, ptr %42, i32 0, i32 8
  %44 = load i32, ptr %43, align 4
  %45 = sext i32 %44 to i64
  %46 = mul i64 4, %45
  %47 = call ptr @palloc(i64 noundef %46)
  %48 = load ptr, ptr %3, align 8
  %49 = getelementptr inbounds nuw %struct.BlockedProcsData, ptr %48, i32 0, i32 2
  store ptr %47, ptr %49, align 8
  %50 = load ptr, ptr @MainLWLockArray, align 8
  %51 = getelementptr inbounds %union.LWLockPadded, ptr %50, i64 4
  %52 = call zeroext i1 @LWLockAcquire(ptr noundef %51, i32 noundef 1)
  %53 = load i32, ptr %2, align 4
  %54 = call ptr @BackendPidGetProcWithLock(i32 noundef %53)
  store ptr %54, ptr %4, align 8
  %55 = load ptr, ptr %4, align 8
  %56 = icmp ne ptr %55, null
  br i1 %56, label %57, label %145

57:                                               ; preds = %1
  store i32 0, ptr %5, align 4
  br label %58

58:                                               ; preds = %68, %57
  %59 = load i32, ptr %5, align 4
  %60 = icmp slt i32 %59, 16
  br i1 %60, label %61, label %71

61:                                               ; preds = %58
  %62 = load ptr, ptr @MainLWLockArray, align 8
  %63 = load i32, ptr %5, align 4
  %64 = add i32 181, %63
  %65 = sext i32 %64 to i64
  %66 = getelementptr inbounds %union.LWLockPadded, ptr %62, i64 %65
  %67 = call zeroext i1 @LWLockAcquire(ptr noundef %66, i32 noundef 1)
  br label %68

68:                                               ; preds = %61
  %69 = load i32, ptr %5, align 4
  %70 = add i32 %69, 1
  store i32 %70, ptr %5, align 4
  br label %58, !llvm.loop !62

71:                                               ; preds = %58
  %72 = load ptr, ptr %4, align 8
  %73 = getelementptr inbounds nuw %struct.PGPROC, ptr %72, i32 0, i32 47
  %74 = load ptr, ptr %73, align 8
  %75 = icmp eq ptr %74, null
  br i1 %75, label %76, label %79

76:                                               ; preds = %71
  %77 = load ptr, ptr %4, align 8
  %78 = load ptr, ptr %3, align 8
  call void @GetSingleProcBlockerStatusData(ptr noundef %77, ptr noundef %78)
  br label %133

79:                                               ; preds = %71
  call void @llvm.lifetime.start.p0(i64 16, ptr %6) #9
  br label %80

80:                                               ; preds = %79
  br label %81

81:                                               ; preds = %80
  br label %82

82:                                               ; preds = %81
  store i32 1, ptr %7, align 4
  br label %83

83:                                               ; preds = %82
  br label %84

84:                                               ; preds = %83
  br label %85

85:                                               ; preds = %84
  store i32 1, ptr %8, align 4
  %86 = load ptr, ptr %4, align 8
  %87 = getelementptr inbounds nuw %struct.PGPROC, ptr %86, i32 0, i32 47
  %88 = load ptr, ptr %87, align 8
  %89 = getelementptr inbounds nuw %struct.PGPROC, ptr %88, i32 0, i32 48
  %90 = getelementptr inbounds nuw %struct.dlist_head, ptr %89, i32 0, i32 0
  %91 = getelementptr inbounds nuw %struct.dlist_iter, ptr %6, i32 0, i32 1
  store ptr %90, ptr %91, align 8
  %92 = getelementptr inbounds nuw %struct.dlist_iter, ptr %6, i32 0, i32 1
  %93 = load ptr, ptr %92, align 8
  %94 = getelementptr inbounds nuw %struct.dlist_node, ptr %93, i32 0, i32 1
  %95 = load ptr, ptr %94, align 8
  %96 = icmp ne ptr %95, null
  br i1 %96, label %97, label %102

97:                                               ; preds = %85
  %98 = getelementptr inbounds nuw %struct.dlist_iter, ptr %6, i32 0, i32 1
  %99 = load ptr, ptr %98, align 8
  %100 = getelementptr inbounds nuw %struct.dlist_node, ptr %99, i32 0, i32 1
  %101 = load ptr, ptr %100, align 8
  br label %105

102:                                              ; preds = %85
  %103 = getelementptr inbounds nuw %struct.dlist_iter, ptr %6, i32 0, i32 1
  %104 = load ptr, ptr %103, align 8
  br label %105

105:                                              ; preds = %102, %97
  %106 = phi ptr [ %101, %97 ], [ %104, %102 ]
  %107 = getelementptr inbounds nuw %struct.dlist_iter, ptr %6, i32 0, i32 0
  store ptr %106, ptr %107, align 8
  br label %108

108:                                              ; preds = %126, %105
  %109 = getelementptr inbounds nuw %struct.dlist_iter, ptr %6, i32 0, i32 0
  %110 = load ptr, ptr %109, align 8
  %111 = getelementptr inbounds nuw %struct.dlist_iter, ptr %6, i32 0, i32 1
  %112 = load ptr, ptr %111, align 8
  %113 = icmp ne ptr %110, %112
  br i1 %113, label %114, label %132

114:                                              ; preds = %108
  call void @llvm.lifetime.start.p0(i64 8, ptr %9) #9
  br label %115

115:                                              ; preds = %114
  br label %116

116:                                              ; preds = %115
  br label %117

117:                                              ; preds = %116
  store i32 1, ptr %10, align 4
  br label %118

118:                                              ; preds = %117
  br label %119

119:                                              ; preds = %118
  br label %120

120:                                              ; preds = %119
  store i32 1, ptr %11, align 4
  %121 = getelementptr inbounds nuw %struct.dlist_iter, ptr %6, i32 0, i32 0
  %122 = load ptr, ptr %121, align 8
  %123 = getelementptr inbounds i8, ptr %122, i64 -816
  store ptr %123, ptr %9, align 8
  %124 = load ptr, ptr %9, align 8
  %125 = load ptr, ptr %3, align 8
  call void @GetSingleProcBlockerStatusData(ptr noundef %124, ptr noundef %125)
  call void @llvm.lifetime.end.p0(i64 8, ptr %9) #9
  br label %126

126:                                              ; preds = %120
  %127 = getelementptr inbounds nuw %struct.dlist_iter, ptr %6, i32 0, i32 0
  %128 = load ptr, ptr %127, align 8
  %129 = getelementptr inbounds nuw %struct.dlist_node, ptr %128, i32 0, i32 1
  %130 = load ptr, ptr %129, align 8
  %131 = getelementptr inbounds nuw %struct.dlist_iter, ptr %6, i32 0, i32 0
  store ptr %130, ptr %131, align 8
  br label %108, !llvm.loop !63

132:                                              ; preds = %108
  call void @llvm.lifetime.end.p0(i64 16, ptr %6) #9
  br label %133

133:                                              ; preds = %132, %76
  store i32 16, ptr %5, align 4
  br label %134

134:                                              ; preds = %138, %133
  %135 = load i32, ptr %5, align 4
  %136 = add i32 %135, -1
  store i32 %136, ptr %5, align 4
  %137 = icmp sge i32 %136, 0
  br i1 %137, label %138, label %144

138:                                              ; preds = %134
  %139 = load ptr, ptr @MainLWLockArray, align 8
  %140 = load i32, ptr %5, align 4
  %141 = add i32 181, %140
  %142 = sext i32 %141 to i64
  %143 = getelementptr inbounds %union.LWLockPadded, ptr %139, i64 %142
  call void @LWLockRelease(ptr noundef %143)
  br label %134, !llvm.loop !64

144:                                              ; preds = %134
  br label %145

145:                                              ; preds = %144, %1
  %146 = load ptr, ptr @MainLWLockArray, align 8
  %147 = getelementptr inbounds %union.LWLockPadded, ptr %146, i64 4
  call void @LWLockRelease(ptr noundef %147)
  %148 = load ptr, ptr %3, align 8
  call void @llvm.lifetime.end.p0(i64 4, ptr %5) #9
  call void @llvm.lifetime.end.p0(i64 8, ptr %4) #9
  call void @llvm.lifetime.end.p0(i64 8, ptr %3) #9
  ret ptr %148
}