; Function Attrs: nounwind uwtable
define dso_local ptr @GetBlockerStatusData(i32 noundef %0) local_unnamed_addr #0 {
  %2 = tail call ptr @palloc(i64 noundef 48) #17
  %3 = getelementptr inbounds nuw i8, ptr %2, i64 40
  store i32 0, ptr %3, align 8
  %4 = getelementptr inbounds nuw i8, ptr %2, i64 32
  store i32 0, ptr %4, align 8
  %5 = getelementptr inbounds nuw i8, ptr %2, i64 24
  store i32 0, ptr %5, align 8
  %6 = load i32, ptr @MaxBackends, align 4
  %7 = getelementptr inbounds nuw i8, ptr %2, i64 44
  store i32 %6, ptr %7, align 4
  %8 = getelementptr inbounds nuw i8, ptr %2, i64 36
  store i32 %6, ptr %8, align 4
  %9 = getelementptr inbounds nuw i8, ptr %2, i64 28
  store i32 %6, ptr %9, align 4
  %10 = sext i32 %6 to i64
  %11 = mul nsw i64 %10, 20
  %12 = tail call ptr @palloc(i64 noundef %11) #17
  store ptr %12, ptr %2, align 8
  %13 = load i32, ptr %8, align 4
  %14 = sext i32 %13 to i64
  %15 = mul nsw i64 %14, 56
  %16 = tail call ptr @palloc(i64 noundef %15) #17
  %17 = getelementptr inbounds nuw i8, ptr %2, i64 8
  store ptr %16, ptr %17, align 8
  %18 = load i32, ptr %7, align 4
  %19 = sext i32 %18 to i64
  %20 = shl nsw i64 %19, 2
  %21 = tail call ptr @palloc(i64 noundef %20) #17
  %22 = getelementptr inbounds nuw i8, ptr %2, i64 16
  store ptr %21, ptr %22, align 8
  %23 = load ptr, ptr @MainLWLockArray, align 8
  %24 = getelementptr inbounds nuw i8, ptr %23, i64 512
  %25 = tail call zeroext i1 @LWLockAcquire(ptr noundef nonnull %24, i32 noundef 1) #17
  %26 = tail call ptr @BackendPidGetProcWithLock(i32 noundef %0) #17
  %.not = icmp eq ptr %26, null
  br i1 %.not, label %.loopexit, label %.preheader

.preheader:                                       ; preds = %1, %.preheader
  %indvars.iv = phi i64 [ %indvars.iv.next, %.preheader ], [ 0, %1 ]
  %27 = load ptr, ptr @MainLWLockArray, align 8
  %28 = getelementptr inbounds nuw %union.LWLockPadded, ptr %27, i64 %indvars.iv
  %29 = getelementptr inbounds nuw i8, ptr %28, i64 23168
  %30 = tail call zeroext i1 @LWLockAcquire(ptr noundef nonnull %29, i32 noundef 1) #17
  %indvars.iv.next = add nuw nsw i64 %indvars.iv, 1
  %exitcond.not = icmp eq i64 %indvars.iv.next, 16
  br i1 %exitcond.not, label %31, label %.preheader, !llvm.loop !56

31:                                               ; preds = %.preheader
  %32 = getelementptr inbounds nuw i8, ptr %26, i64 792
  %33 = load ptr, ptr %32, align 8
  %34 = icmp eq ptr %33, null
  br i1 %34, label %35, label %36

35:                                               ; preds = %31
  tail call fastcc void @GetSingleProcBlockerStatusData(ptr noundef nonnull %26, ptr noundef nonnull %2)
  br label %.loopexit36.preheader

36:                                               ; preds = %31
  %37 = getelementptr inbounds nuw i8, ptr %33, i64 800
  %38 = getelementptr inbounds nuw i8, ptr %33, i64 808
  %39 = load ptr, ptr %38, align 8
  %.not34 = icmp eq ptr %39, null
  %.not353845 = icmp eq ptr %39, %37
  %.not3538 = select i1 %.not34, i1 true, i1 %.not353845
  br i1 %.not3538, label %.loopexit36.preheader, label %.lr.ph

.lr.ph:                                           ; preds = %36, %.lr.ph
  %.sroa.0.039 = phi ptr [ %42, %.lr.ph ], [ %39, %36 ]
  %40 = getelementptr inbounds i8, ptr %.sroa.0.039, i64 -816
  tail call fastcc void @GetSingleProcBlockerStatusData(ptr noundef nonnull %40, ptr noundef nonnull %2)
  %41 = getelementptr inbounds nuw i8, ptr %.sroa.0.039, i64 8
  %42 = load ptr, ptr %41, align 8
  %.not35 = icmp eq ptr %42, %37
  br i1 %.not35, label %.loopexit36.preheader, label %.lr.ph, !llvm.loop !57

.loopexit36.preheader:                            ; preds = %.lr.ph, %36, %35
  br label %.loopexit36

.loopexit36:                                      ; preds = %.loopexit36.preheader, %.loopexit36
  %indvars.iv42 = phi i64 [ %indvars.iv.next43, %.loopexit36 ], [ 16, %.loopexit36.preheader ]
  %indvars.iv.next43 = add nsw i64 %indvars.iv42, -1
  %43 = load ptr, ptr @MainLWLockArray, align 8
  %44 = getelementptr %union.LWLockPadded, ptr %43, i64 %indvars.iv42
  %45 = getelementptr i8, ptr %44, i64 23040
  tail call void @LWLockRelease(ptr noundef nonnull %45) #17
  %46 = icmp ugt i64 %indvars.iv42, 1
  br i1 %46, label %.loopexit36, label %.loopexit, !llvm.loop !58

.loopexit:                                        ; preds = %.loopexit36, %1
  %47 = load ptr, ptr @MainLWLockArray, align 8
  %48 = getelementptr inbounds nuw i8, ptr %47, i64 512
  tail call void @LWLockRelease(ptr noundef nonnull %48) #17
  ret ptr %2
}